target datalayout = "e-m:e-p270:32:32-p271:32:32-p272:64:64-i64:64-i128:128-f80:128-n8:16:32:64-S128"
target triple = "x86_64-pc-linux-gnu"

%struct.strbuf = type { i64, i64, ptr }
%struct.repository = type { ptr, ptr, ptr, ptr, ptr, %struct.strmap, %struct.strmap, %struct.repo_path_cache, ptr, ptr, ptr, ptr, %struct.repo_settings, ptr, ptr, ptr, ptr, ptr, ptr, i32, i32, i32, ptr, ptr, i32, i32, i8 }
%struct.strmap = type { %struct.hashmap, ptr, i8 }
%struct.hashmap = type { ptr, ptr, ptr, i32, i32, i32, i32, i8 }
%struct.repo_path_cache = type { ptr, ptr, ptr, ptr, ptr, ptr, ptr }
%struct.repo_settings = type { i32, i32, i32, i32, i32, i32, i32, i32, i32, i32, i32, i32, ptr, i32, i32, i32, i32, i32, i32, i32, i64, i64, i64 }
%struct.common_dir = type { i8, ptr }

@strbuf_slopbuf = external global [0 x i8], align 1
@__const.report_linked_checkout_garbage.sb = private unnamed_addr constant %struct.strbuf { i64 0, i64 0, ptr @strbuf_slopbuf }, align 8
@.str = private unnamed_addr constant [4 x i8] c"%s/\00", align 1
@report_garbage = external global ptr, align 8
@.str.36 = private unnamed_addr constant [11 x i8] c"./strbuf.h\00", align 1
@.str.37 = private unnamed_addr constant [30 x i8] c"strbuf_setlen() beyond buffer\00", align 1

; Function Attrs: inlinehint nounwind uwtable
define internal void @strbuf_addstr(ptr noundef %0, ptr noundef %1) #2 {
  %3 = alloca ptr, align 8
  %4 = alloca ptr, align 8
  store ptr %0, ptr %3, align 8, !tbaa !8
  store ptr %1, ptr %4, align 8, !tbaa !43
  %5 = load ptr, ptr %3, align 8, !tbaa !8
  %6 = load ptr, ptr %4, align 8, !tbaa !43
  %7 = load ptr, ptr %4, align 8, !tbaa !43
  %8 = call i64 @strlen(ptr noundef %7) #14
  call void @strbuf_add(ptr noundef %5, ptr noundef %6, i64 noundef %8)
  ret void
}

; Function Attrs: inlinehint nounwind uwtable
define internal void @strbuf_setlen(ptr noundef %0, i64 noundef %1) #2 {
  %3 = alloca ptr, align 8
  %4 = alloca i64, align 8
  store ptr %0, ptr %3, align 8, !tbaa !8
  store i64 %1, ptr %4, align 8, !tbaa !11
  %5 = load i64, ptr %4, align 8, !tbaa !11
  %6 = load ptr, ptr %3, align 8, !tbaa !8
  %7 = getelementptr inbounds nuw %struct.strbuf, ptr %6, i32 0, i32 0
  %8 = load i64, ptr %7, align 8, !tbaa !13
  %9 = icmp ne i64 %8, 0
  br i1 %9, label %10, label %15

10:                                               ; preds = %2
  %11 = load ptr, ptr %3, align 8, !tbaa !8
  %12 = getelementptr inbounds nuw %struct.strbuf, ptr %11, i32 0, i32 0
  %13 = load i64, ptr %12, align 8, !tbaa !13
  %14 = sub i64 %13, 1
  br label %16

15:                                               ; preds = %2
  br label %16

16:                                               ; preds = %15, %10
  %17 = phi i64 [ %14, %10 ], [ 0, %15 ]
  %18 = icmp ugt i64 %5, %17
  br i1 %18, label %19, label %20

19:                                               ; preds = %16
  call void (ptr, i32, ptr, ...) @BUG_fl(ptr noundef @.str.36, i32 noundef 167, ptr noundef @.str.37) #13
  unreachable

20:                                               ; preds = %16
  %21 = load i64, ptr %4, align 8, !tbaa !11
  %22 = load ptr, ptr %3, align 8, !tbaa !8
  %23 = getelementptr inbounds nuw %struct.strbuf, ptr %22, i32 0, i32 1
  store i64 %21, ptr %23, align 8, !tbaa !16
  %24 = load ptr, ptr %3, align 8, !tbaa !8
  %25 = getelementptr inbounds nuw %struct.strbuf, ptr %24, i32 0, i32 2
  %26 = load ptr, ptr %25, align 8, !tbaa !17
  %27 = icmp ne ptr %26, @strbuf_slopbuf
  br i1 %27, label %28, label %34

28:                                               ; preds = %20
  %29 = load ptr, ptr %3, align 8, !tbaa !8
  %30 = getelementptr inbounds nuw %struct.strbuf, ptr %29, i32 0, i32 2
  %31 = load ptr, ptr %30, align 8, !tbaa !17
  %32 = load i64, ptr %4, align 8, !tbaa !11
  %33 = getelementptr inbounds nuw i8, ptr %31, i64 %32
  store i8 0, ptr %33, align 1, !tbaa !18
  br label %35

34:                                               ; preds = %20
  br label %35

35:                                               ; preds = %34, %28
  ret void
}

; Function Attrs: nounwind uwtable
define dso_local void @report_linked_checkout_garbage(ptr noundef %0) #0 {
  %2 = alloca ptr, align 8
  %3 = alloca %struct.strbuf, align 8
  %4 = alloca ptr, align 8
  %5 = alloca i32, align 4
  %6 = alloca i32, align 4
  %7 = alloca ptr, align 8
  store ptr %0, ptr %2, align 8, !tbaa !19
  call void @llvm.lifetime.start.p0(i64 24, ptr %3) #12
  call void @llvm.memcpy.p0.p0.i64(ptr align 8 %3, ptr align 8 @__const.report_linked_checkout_garbage.sb, i64 24, i1 false)
  call void @llvm.lifetime.start.p0(i64 8, ptr %4) #12
  call void @llvm.lifetime.start.p0(i64 4, ptr %5) #12
  %8 = load ptr, ptr %2, align 8, !tbaa !19
  %9 = getelementptr inbounds nuw %struct.repository, ptr %8, i32 0, i32 26
  %10 = load i8, ptr %9, align 8
  %11 = and i8 %10, 1
  %12 = zext i8 %11 to i32
  %13 = icmp ne i32 %12, 0
  br i1 %13, label %15, label %14

14:                                               ; preds = %1
  store i32 1, ptr %6, align 4
  br label %57

15:                                               ; preds = %1
  %16 = load ptr, ptr %2, align 8, !tbaa !19
  %17 = getelementptr inbounds nuw %struct.repository, ptr %16, i32 0, i32 0
  %18 = load ptr, ptr %17, align 8, !tbaa !21
  call void (ptr, ptr, ...) @strbuf_addf(ptr noundef %3, ptr noundef @.str, ptr noundef %18)
  %19 = getelementptr inbounds nuw %struct.strbuf, ptr %3, i32 0, i32 1
  %20 = load i64, ptr %19, align 8, !tbaa !16
  %21 = trunc i64 %20 to i32
  store i32 %21, ptr %5, align 4, !tbaa !4
  store ptr @common_list, ptr %4, align 8, !tbaa !39
  br label %22

22:                                               ; preds = %53, %15
  %23 = load ptr, ptr %4, align 8, !tbaa !39
  %24 = getelementptr inbounds nuw %struct.common_dir, ptr %23, i32 0, i32 1
  %25 = load ptr, ptr %24, align 8, !tbaa !41
  %26 = icmp ne ptr %25, null
  br i1 %26, label %27, label %56

27:                                               ; preds = %22
  call void @llvm.lifetime.start.p0(i64 8, ptr %7) #12
  %28 = load ptr, ptr %4, align 8, !tbaa !39
  %29 = getelementptr inbounds nuw %struct.common_dir, ptr %28, i32 0, i32 1
  %30 = load ptr, ptr %29, align 8, !tbaa !41
  store ptr %30, ptr %7, align 8, !tbaa !43
  %31 = load ptr, ptr %4, align 8, !tbaa !39
  %32 = load i8, ptr %31, align 8
  %33 = and i8 %32, 1
  %34 = zext i8 %33 to i32
  %35 = icmp ne i32 %34, 0
  br i1 %35, label %36, label %37

36:                                               ; preds = %27
  store i32 4, ptr %6, align 4
  br label %50

37:                                               ; preds = %27
  %38 = load i32, ptr %5, align 4, !tbaa !4
  %39 = sext i32 %38 to i64
  call void @strbuf_setlen(ptr noundef %3, i64 noundef %39)
  %40 = load ptr, ptr %7, align 8, !tbaa !43
  call void @strbuf_addstr(ptr noundef %3, ptr noundef %40)
  %41 = getelementptr inbounds nuw %struct.strbuf, ptr %3, i32 0, i32 2
  %42 = load ptr, ptr %41, align 8, !tbaa !17
  %43 = call i32 @file_exists(ptr noundef %42)
  %44 = icmp ne i32 %43, 0
  br i1 %44, label %45, label %49

45:                                               ; preds = %37
  %46 = load ptr, ptr @report_garbage, align 8, !tbaa !44
  %47 = getelementptr inbounds nuw %struct.strbuf, ptr %3, i32 0, i32 2
  %48 = load ptr, ptr %47, align 8, !tbaa !17
  call void %46(i32 noundef 4, ptr noundef %48)
  br label %49

49:                                               ; preds = %45, %37
  store i32 0, ptr %6, align 4
  br label %50

50:                                               ; preds = %49, %36
  call void @llvm.lifetime.end.p0(i64 8, ptr %7) #12
  %51 = load i32, ptr %6, align 4
  switch i32 %51, label %60 [
    i32 0, label %52
    i32 4, label %53
  ]

52:                                               ; preds = %50
  br label %53

53:                                               ; preds = %52, %50
  %54 = load ptr, ptr %4, align 8, !tbaa !39
  %55 = getelementptr inbounds nuw %struct.common_dir, ptr %54, i32 1
  store ptr %55, ptr %4, align 8, !tbaa !39
  br label %22, !llvm.loop !45

56:                                               ; preds = %22
  call void @strbuf_release(ptr noundef %3)
  store i32 0, ptr %6, align 4
  br label %57

57:                                               ; preds = %56, %14
  call void @llvm.lifetime.end.p0(i64 4, ptr %5) #12
  call void @llvm.lifetime.end.p0(i64 8, ptr %4) #12
  call void @llvm.lifetime.end.p0(i64 24, ptr %3) #12
  %58 = load i32, ptr %6, align 4
  switch i32 %58, label %60 [
    i32 0, label %59
    i32 1, label %59
  ]

59:                                               ; preds = %57, %57
  ret void

60:                                               ; preds = %57, %50
  unreachable
}