; Function Attrs: nounwind uwtable
define dso_local void @report_linked_checkout_garbage(ptr noundef readonly captures(none) %0) local_unnamed_addr #3 {
  %2 = alloca %struct.strbuf, align 8
  call void @llvm.lifetime.start.p0(i64 24, ptr nonnull %2) #29
  call void @llvm.memcpy.p0.p0.i64(ptr noundef nonnull align 8 dereferenceable(24) %2, ptr noundef nonnull align 8 dereferenceable(24) @__const.do_submodule_path.git_submodule_dir, i64 24, i1 false)
  %3 = getelementptr inbounds nuw i8, ptr %0, i64 456
  %4 = load i8, ptr %3, align 8
  %5 = and i8 %4, 1
  %.not = icmp eq i8 %5, 0
  br i1 %.not, label %35, label %6

6:                                                ; preds = %1
  %7 = load ptr, ptr %0, align 8, !tbaa !16
  call void (ptr, ptr, ...) @strbuf_addf(ptr noundef nonnull %2, ptr noundef nonnull @.str, ptr noundef %7) #29
  %8 = getelementptr inbounds nuw i8, ptr %2, i64 8
  %9 = load ptr, ptr getelementptr inbounds nuw (i8, ptr @common_list, i64 8), align 8, !tbaa !34
  %.not811 = icmp eq ptr %9, null
  br i1 %.not811, label %._crit_edge, label %.lr.ph

.lr.ph:                                           ; preds = %6
  %10 = load i64, ptr %8, align 8, !tbaa !8
  %sext = shl i64 %10, 32
  %11 = ashr exact i64 %sext, 32
  %12 = getelementptr inbounds nuw i8, ptr %2, i64 16
  br label %13

13:                                               ; preds = %.lr.ph, %31
  %14 = phi ptr [ %9, %.lr.ph ], [ %34, %31 ]
  %.012 = phi ptr [ @common_list, %.lr.ph ], [ %32, %31 ]
  %15 = load i8, ptr %.012, align 8
  %16 = and i8 %15, 1
  %.not9 = icmp eq i8 %16, 0
  br i1 %.not9, label %17, label %31

17:                                               ; preds = %13
  %18 = load i64, ptr %2, align 8, !tbaa !15
  %spec.select.i = call i64 @llvm.usub.sat.i64(i64 %18, i64 1)
  %19 = icmp ugt i64 %11, %spec.select.i
  br i1 %19, label %20, label %21

20:                                               ; preds = %17
  call void (ptr, i32, ptr, ...) @BUG_fl(ptr noundef nonnull @.str.36, i32 noundef 167, ptr noundef nonnull @.str.37) #28
  unreachable

21:                                               ; preds = %17
  store i64 %11, ptr %8, align 8, !tbaa !8
  %22 = load ptr, ptr %12, align 8, !tbaa !13
  %.not9.i = icmp eq ptr %22, @strbuf_slopbuf
  br i1 %.not9.i, label %strbuf_setlen.exit, label %23

23:                                               ; preds = %21
  %24 = getelementptr inbounds nuw i8, ptr %22, i64 %11
  store i8 0, ptr %24, align 1, !tbaa !14
  br label %strbuf_setlen.exit

strbuf_setlen.exit:                               ; preds = %21, %23
  %25 = call i64 @strlen(ptr noundef nonnull dereferenceable(1) %14) #30
  call void @strbuf_add(ptr noundef nonnull %2, ptr noundef nonnull %14, i64 noundef %25) #29
  %26 = load ptr, ptr %12, align 8, !tbaa !13
  %27 = call i32 @file_exists(ptr noundef %26) #29
  %.not10 = icmp eq i32 %27, 0
  br i1 %.not10, label %31, label %28

28:                                               ; preds = %strbuf_setlen.exit
  %29 = load ptr, ptr @report_garbage, align 8, !tbaa !36
  %30 = load ptr, ptr %12, align 8, !tbaa !13
  call void %29(i32 noundef 4, ptr noundef %30) #29
  br label %31

31:                                               ; preds = %strbuf_setlen.exit, %28, %13
  %32 = getelementptr inbounds nuw i8, ptr %.012, i64 16
  %33 = getelementptr inbounds nuw i8, ptr %.012, i64 24
  %34 = load ptr, ptr %33, align 8, !tbaa !34
  %.not8 = icmp eq ptr %34, null
  br i1 %.not8, label %._crit_edge, label %13, !llvm.loop !37

._crit_edge:                                      ; preds = %31, %6
  call void @strbuf_release(ptr noundef nonnull %2) #29
  br label %35

35:                                               ; preds = %1, %._crit_edge
  call void @llvm.lifetime.end.p0(i64 24, ptr nonnull %2) #29
  ret void
}